target datalayout = "e-m:e-p270:32:32-p271:32:32-p272:64:64-i64:64-i128:128-f80:128-n8:16:32:64-S128"
target triple = "x86_64-pc-linux-gnu"

%struct._GLFWwindow = type { ptr, i32, i32, i32, i32, i32, i32, i32, ptr, i32, %struct.GLFWvidmode, ptr, ptr, ptr, i32, i32, i32, i32, i32, i32, i32, i32, i32, i32, [8 x i8], [349 x i8], double, double, i32, %struct._GLFWcontext, %struct.anon.6, %struct._GLFWwindowWayland, %struct._GLFWwindowX11, %struct._GLFWwindowNull }
%struct.GLFWvidmode = type { i32, i32, i32, i32, i32, i32 }
%struct._GLFWcontext = type { i32, i32, i32, i32, i32, i32, i32, i32, i32, i32, i32, ptr, ptr, ptr, ptr, ptr, ptr, ptr, ptr, ptr, %struct.anon.4, %struct.anon.5, %struct._GLFWcontextGLX }
%struct.anon.4 = type { ptr, ptr, ptr, ptr }
%struct.anon.5 = type { ptr, i32, i32, ptr }
%struct._GLFWcontextGLX = type { ptr, i64 }
%struct.anon.6 = type { ptr, ptr, ptr, ptr, ptr, ptr, ptr, ptr, ptr, ptr, ptr, ptr, ptr, ptr, ptr, ptr, ptr }
%struct._GLFWwindowWayland = type { i32, i32, i32, i32, i32, i32, i32, i32, i32, i32, i32, ptr, ptr, %struct.anon.7, %struct.anon.8, %struct.anon.9, %struct.anon.10, ptr, double, double, ptr, i32, ptr, i64, i64, ptr, i32, ptr, ptr, ptr, ptr, ptr, ptr, %struct.anon.11 }
%struct.anon.7 = type { ptr }
%struct.anon.8 = type { i32, i32, i32, i32, i32, i32 }
%struct.anon.9 = type { ptr, ptr, ptr, i32 }
%struct.anon.10 = type { ptr }
%struct.anon.11 = type { i32, ptr, %struct._GLFWfallbackEdgeWayland, %struct._GLFWfallbackEdgeWayland, %struct._GLFWfallbackEdgeWayland, %struct._GLFWfallbackEdgeWayland, ptr }
%struct._GLFWfallbackEdgeWayland = type { ptr, ptr, ptr }
%struct._GLFWwindowX11 = type { i64, i64, i64, ptr, i32, i32, i32, i32, i32, i32, i32, i32, i32, i32, i32, i32, [256 x i64] }
%struct._GLFWwindowNull = type { i32, i32, i32, i32, i32, i32, i32, i32, i32, i32, i32, float }

; Function Attrs: nounwind uwtable
define hidden void @_glfwGetFramebufferSizeNull(ptr noundef %0, ptr noundef %1, ptr noundef %2) #0 {
  %4 = alloca ptr, align 8
  %5 = alloca ptr, align 8
  %6 = alloca ptr, align 8
  store ptr %0, ptr %4, align 8, !tbaa !3
  store ptr %1, ptr %5, align 8, !tbaa !176
  store ptr %2, ptr %6, align 8, !tbaa !176
  %7 = load ptr, ptr %5, align 8, !tbaa !176
  %8 = icmp ne ptr %7, null
  br i1 %8, label %9, label %15

9:                                                ; preds = %3
  %10 = load ptr, ptr %4, align 8, !tbaa !3
  %11 = getelementptr inbounds nuw %struct._GLFWwindow, ptr %10, i32 0, i32 33
  %12 = getelementptr inbounds nuw %struct._GLFWwindowNull, ptr %11, i32 0, i32 2
  %13 = load i32, ptr %12, align 8, !tbaa !74
  %14 = load ptr, ptr %5, align 8, !tbaa !176
  store i32 %13, ptr %14, align 4, !tbaa !88
  br label %15

15:                                               ; preds = %9, %3
  %16 = load ptr, ptr %6, align 8, !tbaa !176
  %17 = icmp ne ptr %16, null
  br i1 %17, label %18, label %24

18:                                               ; preds = %15
  %19 = load ptr, ptr %4, align 8, !tbaa !3
  %20 = getelementptr inbounds nuw %struct._GLFWwindow, ptr %19, i32 0, i32 33
  %21 = getelementptr inbounds nuw %struct._GLFWwindowNull, ptr %20, i32 0, i32 3
  %22 = load i32, ptr %21, align 4, !tbaa !76
  %23 = load ptr, ptr %6, align 8, !tbaa !176
  store i32 %22, ptr %23, align 4, !tbaa !88
  br label %24

24:                                               ; preds = %18, %15
  ret void
}